target datalayout = "e-m:e-p270:32:32-p271:32:32-p272:64:64-i64:64-i128:128-f80:128-n8:16:32:64-S128"
target triple = "x86_64-pc-linux-gnu"

; Function Attrs: nounwind uwtable
define i32 @BN_GF2m_mod_exp_arr(ptr noundef %0, ptr noundef %1, ptr noundef %2, ptr noundef %3, ptr noundef %4) #0 {
  %6 = alloca i32, align 4
  %7 = alloca ptr, align 8
  %8 = alloca ptr, align 8
  %9 = alloca ptr, align 8
  %10 = alloca ptr, align 8
  %11 = alloca ptr, align 8
  %12 = alloca i32, align 4
  %13 = alloca i32, align 4
  %14 = alloca i32, align 4
  %15 = alloca ptr, align 8
  %16 = alloca i32, align 4
  store ptr %0, ptr %7, align 8, !tbaa !3
  store ptr %1, ptr %8, align 8, !tbaa !3
  store ptr %2, ptr %9, align 8, !tbaa !3
  store ptr %3, ptr %10, align 8, !tbaa !19
  store ptr %4, ptr %11, align 8, !tbaa !29
  call void @llvm.lifetime.start.p0(i64 4, ptr %12) #3
  store i32 0, ptr %12, align 4, !tbaa !12
  call void @llvm.lifetime.start.p0(i64 4, ptr %13) #3
  call void @llvm.lifetime.start.p0(i64 4, ptr %14) #3
  call void @llvm.lifetime.start.p0(i64 8, ptr %15) #3
  %17 = load ptr, ptr %9, align 8, !tbaa !3
  %18 = call i32 @BN_is_zero(ptr noundef %17)
  %19 = icmp ne i32 %18, 0
  br i1 %19, label %20, label %23

20:                                               ; preds = %5
  %21 = load ptr, ptr %7, align 8, !tbaa !3
  %22 = call i32 @BN_set_word(ptr noundef %21, i64 noundef 1)
  store i32 %22, ptr %6, align 4
  store i32 1, ptr %16, align 4
  br label %92

23:                                               ; preds = %5
  %24 = load ptr, ptr %9, align 8, !tbaa !3
  %25 = call i32 @BN_abs_is_word(ptr noundef %24, i64 noundef 1)
  %26 = icmp ne i32 %25, 0
  br i1 %26, label %27, label %33

27:                                               ; preds = %23
  %28 = load ptr, ptr %7, align 8, !tbaa !3
  %29 = load ptr, ptr %8, align 8, !tbaa !3
  %30 = call ptr @BN_copy(ptr noundef %28, ptr noundef %29)
  %31 = icmp ne ptr %30, null
  %32 = zext i1 %31 to i32
  store i32 %32, ptr %6, align 4
  store i32 1, ptr %16, align 4
  br label %92

33:                                               ; preds = %23
  %34 = load ptr, ptr %11, align 8, !tbaa !29
  call void @BN_CTX_start(ptr noundef %34)
  %35 = load ptr, ptr %11, align 8, !tbaa !29
  %36 = call ptr @BN_CTX_get(ptr noundef %35)
  store ptr %36, ptr %15, align 8, !tbaa !3
  %37 = icmp eq ptr %36, null
  br i1 %37, label %38, label %39

38:                                               ; preds = %33
  br label %89

39:                                               ; preds = %33
  %40 = load ptr, ptr %15, align 8, !tbaa !3
  %41 = load ptr, ptr %8, align 8, !tbaa !3
  %42 = load ptr, ptr %10, align 8, !tbaa !19
  %43 = call i32 @BN_GF2m_mod_arr(ptr noundef %40, ptr noundef %41, ptr noundef %42)
  %44 = icmp ne i32 %43, 0
  br i1 %44, label %46, label %45

45:                                               ; preds = %39
  br label %89

46:                                               ; preds = %39
  %47 = load ptr, ptr %9, align 8, !tbaa !3
  %48 = call i32 @BN_num_bits(ptr noundef %47)
  %49 = sub nsw i32 %48, 1
  store i32 %49, ptr %14, align 4, !tbaa !12
  %50 = load i32, ptr %14, align 4, !tbaa !12
  %51 = sub nsw i32 %50, 1
  store i32 %51, ptr %13, align 4, !tbaa !12
  br label %52

52:                                               ; preds = %79, %46
  %53 = load i32, ptr %13, align 4, !tbaa !12
  %54 = icmp sge i32 %53, 0
  br i1 %54, label %55, label %82

55:                                               ; preds = %52
  %56 = load ptr, ptr %15, align 8, !tbaa !3
  %57 = load ptr, ptr %15, align 8, !tbaa !3
  %58 = load ptr, ptr %10, align 8, !tbaa !19
  %59 = load ptr, ptr %11, align 8, !tbaa !29
  %60 = call i32 @BN_GF2m_mod_sqr_arr(ptr noundef %56, ptr noundef %57, ptr noundef %58, ptr noundef %59)
  %61 = icmp ne i32 %60, 0
  br i1 %61, label %63, label %62

62:                                               ; preds = %55
  br label %89

63:                                               ; preds = %55
  %64 = load ptr, ptr %9, align 8, !tbaa !3
  %65 = load i32, ptr %13, align 4, !tbaa !12
  %66 = call i32 @BN_is_bit_set(ptr noundef %64, i32 noundef %65)
  %67 = icmp ne i32 %66, 0
  br i1 %67, label %68, label %78

68:                                               ; preds = %63
  %69 = load ptr, ptr %15, align 8, !tbaa !3
  %70 = load ptr, ptr %15, align 8, !tbaa !3
  %71 = load ptr, ptr %8, align 8, !tbaa !3
  %72 = load ptr, ptr %10, align 8, !tbaa !19
  %73 = load ptr, ptr %11, align 8, !tbaa !29
  %74 = call i32 @BN_GF2m_mod_mul_arr(ptr noundef %69, ptr noundef %70, ptr noundef %71, ptr noundef %72, ptr noundef %73)
  %75 = icmp ne i32 %74, 0
  br i1 %75, label %77, label %76

76:                                               ; preds = %68
  br label %89

77:                                               ; preds = %68
  br label %78

78:                                               ; preds = %77, %63
  br label %79

79:                                               ; preds = %78
  %80 = load i32, ptr %13, align 4, !tbaa !12
  %81 = add nsw i32 %80, -1
  store i32 %81, ptr %13, align 4, !tbaa !12
  br label %52, !llvm.loop !45

82:                                               ; preds = %52
  %83 = load ptr, ptr %7, align 8, !tbaa !3
  %84 = load ptr, ptr %15, align 8, !tbaa !3
  %85 = call ptr @BN_copy(ptr noundef %83, ptr noundef %84)
  %86 = icmp ne ptr %85, null
  br i1 %86, label %88, label %87

87:                                               ; preds = %82
  br label %89

88:                                               ; preds = %82
  store i32 1, ptr %12, align 4, !tbaa !12
  br label %89

89:                                               ; preds = %88, %87, %76, %62, %45, %38
  %90 = load ptr, ptr %11, align 8, !tbaa !29
  call void @BN_CTX_end(ptr noundef %90)
  %91 = load i32, ptr %12, align 4, !tbaa !12
  store i32 %91, ptr %6, align 4
  store i32 1, ptr %16, align 4
  br label %92

92:                                               ; preds = %89, %27, %20
  call void @llvm.lifetime.end.p0(i64 8, ptr %15) #3
  call void @llvm.lifetime.end.p0(i64 4, ptr %14) #3
  call void @llvm.lifetime.end.p0(i64 4, ptr %13) #3
  call void @llvm.lifetime.end.p0(i64 4, ptr %12) #3
  %93 = load i32, ptr %6, align 4
  ret i32 %93
}