; Function Attrs: nounwind uwtable
define i32 @BN_GF2m_mod_exp_arr(ptr noundef %0, ptr noundef %1, ptr noundef %2, ptr noundef readonly captures(none) %3, ptr noundef %4) local_unnamed_addr #0 {
  %6 = tail call i32 @BN_is_zero(ptr noundef %2) #5
  %.not = icmp eq i32 %6, 0
  br i1 %.not, label %9, label %7

7:                                                ; preds = %5
  %8 = tail call i32 @BN_set_word(ptr noundef %0, i64 noundef 1) #5
  br label %33

9:                                                ; preds = %5
  %10 = tail call i32 @BN_abs_is_word(ptr noundef %2, i64 noundef 1) #5
  %.not32 = icmp eq i32 %10, 0
  br i1 %.not32, label %15, label %11

11:                                               ; preds = %9
  %12 = tail call ptr @BN_copy(ptr noundef %0, ptr noundef %1) #5
  %13 = icmp ne ptr %12, null
  %14 = zext i1 %13 to i32
  br label %33

15:                                               ; preds = %9
  tail call void @BN_CTX_start(ptr noundef %4) #5
  %16 = tail call ptr @BN_CTX_get(ptr noundef %4) #5
  %17 = icmp eq ptr %16, null
  br i1 %17, label %.loopexit, label %18

18:                                               ; preds = %15
  %19 = tail call i32 @BN_GF2m_mod_arr(ptr noundef nonnull %16, ptr noundef %1, ptr noundef %3)
  %.not33 = icmp eq i32 %19, 0
  br i1 %.not33, label %.loopexit, label %20

20:                                               ; preds = %18
  %21 = tail call i32 @BN_num_bits(ptr noundef %2) #5
  %22 = icmp sgt i32 %21, 1
  br i1 %22, label %.lr.ph.preheader, label %._crit_edge

.lr.ph.preheader:                                 ; preds = %20
  %23 = add nsw i32 %21, -2
  br label %.lr.ph

.lr.ph:                                           ; preds = %.lr.ph.preheader, %29
  %.03038 = phi i32 [ %30, %29 ], [ %23, %.lr.ph.preheader ]
  %24 = tail call i32 @BN_GF2m_mod_sqr_arr(ptr noundef nonnull %16, ptr noundef nonnull %16, ptr noundef %3, ptr noundef %4)
  %.not35 = icmp eq i32 %24, 0
  br i1 %.not35, label %.loopexit, label %25

25:                                               ; preds = %.lr.ph
  %26 = tail call i32 @BN_is_bit_set(ptr noundef %2, i32 noundef %.03038) #5
  %.not36 = icmp eq i32 %26, 0
  br i1 %.not36, label %29, label %27

27:                                               ; preds = %25
  %28 = tail call i32 @BN_GF2m_mod_mul_arr(ptr noundef nonnull %16, ptr noundef nonnull %16, ptr noundef %1, ptr noundef %3, ptr noundef %4)
  %.not37 = icmp eq i32 %28, 0
  br i1 %.not37, label %.loopexit, label %29

29:                                               ; preds = %25, %27
  %30 = add nsw i32 %.03038, -1
  %31 = icmp sgt i32 %.03038, 0
  br i1 %31, label %.lr.ph, label %._crit_edge, !llvm.loop !33

._crit_edge:                                      ; preds = %29, %20
  %32 = tail call ptr @BN_copy(ptr noundef %0, ptr noundef nonnull %16) #5
  %.not34 = icmp ne ptr %32, null
  %spec.select = zext i1 %.not34 to i32
  br label %.loopexit

.loopexit:                                        ; preds = %27, %.lr.ph, %._crit_edge, %18, %15
  %.029 = phi i32 [ 0, %15 ], [ 0, %18 ], [ %spec.select, %._crit_edge ], [ 0, %.lr.ph ], [ 0, %27 ]
  tail call void @BN_CTX_end(ptr noundef %4) #5
  br label %33

33:                                               ; preds = %.loopexit, %11, %7
  %.0 = phi i32 [ %8, %7 ], [ %14, %11 ], [ %.029, %.loopexit ]
  ret i32 %.0
}